target datalayout = "e-m:e-p270:32:32-p271:32:32-p272:64:64-i64:64-i128:128-f80:128-n8:16:32:64-S128"
target triple = "x86_64-pc-linux-gnu"

%"class.llvm::StringRef" = type { ptr, i64 }
%"class.llvm::ArrayRef" = type { ptr, i64 }
%"struct.(anonymous namespace)::GPUInfo" = type { %"class.llvm::StringLiteral", %"class.llvm::StringLiteral", i32, i32 }
%"class.llvm::StringLiteral" = type { %"class.llvm::StringRef" }
%"struct.__gnu_cxx::__ops::_Iter_comp_val" = type { i8 }

@.str.4 = private unnamed_addr constant [1 x i8] zeroinitializer, align 1

; Function Attrs: mustprogress nounwind uwtable
define internal noundef zeroext i1 @"_ZZN12_GLOBAL__N_112getArchEntryEN4llvm6AMDGPU7GPUKindENS0_8ArrayRefINS_7GPUInfoEEEENK3$_0clERKS4_S8_"(ptr noundef nonnull align 1 dereferenceable(1) %0, ptr noundef nonnull align 8 dereferenceable(40) %1, ptr noundef nonnull align 8 dereferenceable(40) %2) #0 align 2 {
  %4 = alloca ptr, align 8
  %5 = alloca ptr, align 8
  %6 = alloca ptr, align 8
  store ptr %0, ptr %4, align 8
  store ptr %1, ptr %5, align 8
  store ptr %2, ptr %6, align 8
  %7 = load ptr, ptr %5, align 8
  %8 = getelementptr inbounds nuw %"struct.(anonymous namespace)::GPUInfo", ptr %7, i32 0, i32 2
  %9 = load i32, ptr %8, align 8
  %10 = load ptr, ptr %6, align 8
  %11 = getelementptr inbounds nuw %"struct.(anonymous namespace)::GPUInfo", ptr %10, i32 0, i32 2
  %12 = load i32, ptr %11, align 8
  %13 = icmp ult i32 %9, %12
  ret i1 %13
}

; Function Attrs: mustprogress nounwind uwtable
define internal void @_ZSt9__advanceIPKN12_GLOBAL__N_17GPUInfoElEvRT_T0_St26random_access_iterator_tag(ptr noundef nonnull align 8 dereferenceable(8) %0, i64 noundef %1) #0 {
  %3 = alloca ptr, align 8
  %4 = alloca i64, align 8
  store ptr %0, ptr %3, align 8
  store i64 %1, ptr %4, align 8
  %5 = load i64, ptr %4, align 8
  %6 = call i1 @llvm.is.constant.i64(i64 %5)
  br i1 %6, label %7, label %14

7:                                                ; preds = %2
  %8 = load i64, ptr %4, align 8
  %9 = icmp eq i64 %8, 1
  br i1 %9, label %10, label %14

10:                                               ; preds = %7
  %11 = load ptr, ptr %3, align 8
  %12 = load ptr, ptr %11, align 8
  %13 = getelementptr inbounds %"struct.(anonymous namespace)::GPUInfo", ptr %12, i32 1
  store ptr %13, ptr %11, align 8
  br label %30

14:                                               ; preds = %7, %2
  %15 = load i64, ptr %4, align 8
  %16 = call i1 @llvm.is.constant.i64(i64 %15)
  br i1 %16, label %17, label %24

17:                                               ; preds = %14
  %18 = load i64, ptr %4, align 8
  %19 = icmp eq i64 %18, -1
  br i1 %19, label %20, label %24

20:                                               ; preds = %17
  %21 = load ptr, ptr %3, align 8
  %22 = load ptr, ptr %21, align 8
  %23 = getelementptr inbounds %"struct.(anonymous namespace)::GPUInfo", ptr %22, i32 -1
  store ptr %23, ptr %21, align 8
  br label %29

24:                                               ; preds = %17, %14
  %25 = load i64, ptr %4, align 8
  %26 = load ptr, ptr %3, align 8
  %27 = load ptr, ptr %26, align 8
  %28 = getelementptr inbounds %"struct.(anonymous namespace)::GPUInfo", ptr %27, i64 %25
  store ptr %28, ptr %26, align 8
  br label %29

29:                                               ; preds = %24, %20
  br label %30

30:                                               ; preds = %29, %10
  ret void
}

; Function Attrs: mustprogress nounwind uwtable
define internal noundef i64 @_ZSt10__distanceIPKN12_GLOBAL__N_17GPUInfoEENSt15iterator_traitsIT_E15difference_typeES5_S5_St26random_access_iterator_tag(ptr noundef %0, ptr noundef %1) #0 {
  %3 = alloca ptr, align 8
  %4 = alloca ptr, align 8
  store ptr %0, ptr %3, align 8
  store ptr %1, ptr %4, align 8
  %5 = load ptr, ptr %4, align 8
  %6 = load ptr, ptr %3, align 8
  %7 = ptrtoint ptr %5 to i64
  %8 = ptrtoint ptr %6 to i64
  %9 = sub i64 %7, %8
  %10 = sdiv exact i64 %9, 40
  ret i64 %10
}

; Function Attrs: mustprogress nounwind uwtable
define internal void @_ZSt19__iterator_categoryIPKN12_GLOBAL__N_17GPUInfoEENSt15iterator_traitsIT_E17iterator_categoryERKS5_(ptr noundef nonnull align 8 dereferenceable(8) %0) #0 {
  %2 = alloca ptr, align 8
  store ptr %0, ptr %2, align 8
  ret void
}

; Function Attrs: mustprogress nounwind uwtable
define internal noundef ptr @_ZNK4llvm8ArrayRefIN12_GLOBAL__N_17GPUInfoEE5beginEv(ptr noundef nonnull align 8 dereferenceable(16) %0) #0 align 2 {
  %2 = alloca ptr, align 8
  store ptr %0, ptr %2, align 8
  %3 = load ptr, ptr %2, align 8
  %4 = getelementptr inbounds nuw %"class.llvm::ArrayRef", ptr %3, i32 0, i32 0
  %5 = load ptr, ptr %4, align 8
  ret ptr %5
}

; Function Attrs: mustprogress nounwind uwtable
define internal noundef zeroext i1 @"_ZN9__gnu_cxx5__ops14_Iter_comp_valIZN12_GLOBAL__N_112getArchEntryEN4llvm6AMDGPU7GPUKindENS3_8ArrayRefINS2_7GPUInfoEEEE3$_0EclIPKS7_SC_EEbT_RT0_"(ptr noundef nonnull align 1 dereferenceable(1) %0, ptr noundef %1, ptr noundef nonnull align 8 dereferenceable(40) %2) #0 align 2 {
  %4 = alloca ptr, align 8
  %5 = alloca ptr, align 8
  %6 = alloca ptr, align 8
  store ptr %0, ptr %4, align 8
  store ptr %1, ptr %5, align 8
  store ptr %2, ptr %6, align 8
  %7 = load ptr, ptr %4, align 8
  %8 = load ptr, ptr %5, align 8
  %9 = load ptr, ptr %6, align 8
  %10 = call noundef zeroext i1 @"_ZZN12_GLOBAL__N_112getArchEntryEN4llvm6AMDGPU7GPUKindENS0_8ArrayRefINS_7GPUInfoEEEENK3$_0clERKS4_S8_"(ptr noundef nonnull align 1 dereferenceable(1) %7, ptr noundef nonnull align 8 dereferenceable(40) %8, ptr noundef nonnull align 8 dereferenceable(40) %9)
  ret i1 %10
}

; Function Attrs: mustprogress nounwind uwtable
define internal void @_ZSt7advanceIPKN12_GLOBAL__N_17GPUInfoElEvRT_T0_(ptr noundef nonnull align 8 dereferenceable(8) %0, i64 noundef %1) #0 {
  %3 = alloca ptr, align 8
  %4 = alloca i64, align 8
  %5 = alloca i64, align 8
  store ptr %0, ptr %3, align 8
  store i64 %1, ptr %4, align 8
  %6 = load i64, ptr %4, align 8
  store i64 %6, ptr %5, align 8
  %7 = load ptr, ptr %3, align 8
  %8 = load i64, ptr %5, align 8
  %9 = load ptr, ptr %3, align 8
  call void @_ZSt19__iterator_categoryIPKN12_GLOBAL__N_17GPUInfoEENSt15iterator_traitsIT_E17iterator_categoryERKS5_(ptr noundef nonnull align 8 dereferenceable(8) %9)
  call void @_ZSt9__advanceIPKN12_GLOBAL__N_17GPUInfoElEvRT_T0_St26random_access_iterator_tag(ptr noundef nonnull align 8 dereferenceable(8) %7, i64 noundef %8)
  ret void
}

; Function Attrs: mustprogress nounwind uwtable
define internal noundef i64 @_ZSt8distanceIPKN12_GLOBAL__N_17GPUInfoEENSt15iterator_traitsIT_E15difference_typeES5_S5_(ptr noundef %0, ptr noundef %1) #0 {
  %3 = alloca ptr, align 8
  %4 = alloca ptr, align 8
  store ptr %0, ptr %3, align 8
  store ptr %1, ptr %4, align 8
  %5 = load ptr, ptr %3, align 8
  %6 = load ptr, ptr %4, align 8
  call void @_ZSt19__iterator_categoryIPKN12_GLOBAL__N_17GPUInfoEENSt15iterator_traitsIT_E17iterator_categoryERKS5_(ptr noundef nonnull align 8 dereferenceable(8) %3)
  %7 = call noundef i64 @_ZSt10__distanceIPKN12_GLOBAL__N_17GPUInfoEENSt15iterator_traitsIT_E15difference_typeES5_S5_St26random_access_iterator_tag(ptr noundef %5, ptr noundef %6)
  ret i64 %7
}

; Function Attrs: mustprogress nounwind uwtable
define internal void @"_ZN9__gnu_cxx5__ops14_Iter_comp_valIZN12_GLOBAL__N_112getArchEntryEN4llvm6AMDGPU7GPUKindENS3_8ArrayRefINS2_7GPUInfoEEEE3$_0EC2ES9_"(ptr noundef nonnull align 1 dereferenceable(1) %0) unnamed_addr #0 align 2 {
  %2 = alloca ptr, align 8
  store ptr %0, ptr %2, align 8
  ret void
}

; Function Attrs: mustprogress nounwind uwtable
define internal noundef ptr @_ZSt3endIN4llvm8ArrayRefIN12_GLOBAL__N_17GPUInfoEEEEDTcldtfp_3endEERT_(ptr noundef nonnull align 8 dereferenceable(16) %0) #0 {
  %2 = alloca ptr, align 8
  store ptr %0, ptr %2, align 8
  %3 = load ptr, ptr %2, align 8
  %4 = call noundef ptr @_ZNK4llvm8ArrayRefIN12_GLOBAL__N_17GPUInfoEE3endEv(ptr noundef nonnull align 8 dereferenceable(16) %3)
  ret ptr %4
}

; Function Attrs: mustprogress nounwind uwtable
define internal noundef ptr @_ZSt5beginIN4llvm8ArrayRefIN12_GLOBAL__N_17GPUInfoEEEEDTcldtfp_5beginEERT_(ptr noundef nonnull align 8 dereferenceable(16) %0) #0 {
  %2 = alloca ptr, align 8
  store ptr %0, ptr %2, align 8
  %3 = load ptr, ptr %2, align 8
  %4 = call noundef ptr @_ZNK4llvm8ArrayRefIN12_GLOBAL__N_17GPUInfoEE5beginEv(ptr noundef nonnull align 8 dereferenceable(16) %3)
  ret ptr %4
}

; Function Attrs: mustprogress nounwind uwtable
define internal noundef ptr @"_ZSt13__lower_boundIPKN12_GLOBAL__N_17GPUInfoES1_N9__gnu_cxx5__ops14_Iter_comp_valIZNS0_12getArchEntryEN4llvm6AMDGPU7GPUKindENS7_8ArrayRefIS1_EEE3$_0EEET_SE_SE_RKT0_T1_"(ptr noundef %0, ptr noundef %1, ptr noundef nonnull align 8 dereferenceable(40) %2) #0 {
  %4 = alloca %"struct.__gnu_cxx::__ops::_Iter_comp_val", align 1
  %5 = alloca ptr, align 8
  %6 = alloca ptr, align 8
  %7 = alloca ptr, align 8
  %8 = alloca i64, align 8
  %9 = alloca i64, align 8
  %10 = alloca ptr, align 8
  store ptr %0, ptr %5, align 8
  store ptr %1, ptr %6, align 8
  store ptr %2, ptr %7, align 8
  %11 = load ptr, ptr %5, align 8
  %12 = load ptr, ptr %6, align 8
  %13 = call noundef i64 @_ZSt8distanceIPKN12_GLOBAL__N_17GPUInfoEENSt15iterator_traitsIT_E15difference_typeES5_S5_(ptr noundef %11, ptr noundef %12)
  store i64 %13, ptr %8, align 8
  br label %14

14:                                               ; preds = %35, %3
  %15 = load i64, ptr %8, align 8
  %16 = icmp sgt i64 %15, 0
  br i1 %16, label %17, label %36

17:                                               ; preds = %14
  %18 = load i64, ptr %8, align 8
  %19 = ashr i64 %18, 1
  store i64 %19, ptr %9, align 8
  %20 = load ptr, ptr %5, align 8
  store ptr %20, ptr %10, align 8
  %21 = load i64, ptr %9, align 8
  call void @_ZSt7advanceIPKN12_GLOBAL__N_17GPUInfoElEvRT_T0_(ptr noundef nonnull align 8 dereferenceable(8) %10, i64 noundef %21)
  %22 = load ptr, ptr %10, align 8
  %23 = load ptr, ptr %7, align 8
  %24 = call noundef zeroext i1 @"_ZN9__gnu_cxx5__ops14_Iter_comp_valIZN12_GLOBAL__N_112getArchEntryEN4llvm6AMDGPU7GPUKindENS3_8ArrayRefINS2_7GPUInfoEEEE3$_0EclIPKS7_SC_EEbT_RT0_"(ptr noundef nonnull align 1 dereferenceable(1) %4, ptr noundef %22, ptr noundef nonnull align 8 dereferenceable(40) %23)
  br i1 %24, label %25, label %33

25:                                               ; preds = %17
  %26 = load ptr, ptr %10, align 8
  store ptr %26, ptr %5, align 8
  %27 = load ptr, ptr %5, align 8
  %28 = getelementptr inbounds %"struct.(anonymous namespace)::GPUInfo", ptr %27, i32 1
  store ptr %28, ptr %5, align 8
  %29 = load i64, ptr %8, align 8
  %30 = load i64, ptr %9, align 8
  %31 = sub nsw i64 %29, %30
  %32 = sub nsw i64 %31, 1
  store i64 %32, ptr %8, align 8
  br label %35

33:                                               ; preds = %17
  %34 = load i64, ptr %9, align 8
  store i64 %34, ptr %8, align 8
  br label %35

35:                                               ; preds = %33, %25
  br label %14, !llvm.loop !4

36:                                               ; preds = %14
  %37 = load ptr, ptr %5, align 8
  ret ptr %37
}

; Function Attrs: mustprogress nounwind uwtable
define internal void @"_ZN9__gnu_cxx5__ops15__iter_comp_valIZN12_GLOBAL__N_112getArchEntryEN4llvm6AMDGPU7GPUKindENS3_8ArrayRefINS2_7GPUInfoEEEE3$_0EENS0_14_Iter_comp_valIT_EESB_"() #0 {
  %1 = alloca %"struct.__gnu_cxx::__ops::_Iter_comp_val", align 1
  call void @"_ZN9__gnu_cxx5__ops14_Iter_comp_valIZN12_GLOBAL__N_112getArchEntryEN4llvm6AMDGPU7GPUKindENS3_8ArrayRefINS2_7GPUInfoEEEE3$_0EC2ES9_"(ptr noundef nonnull align 1 dereferenceable(1) %1)
  ret void
}

; Function Attrs: mustprogress nounwind uwtable
define internal noundef ptr @_ZN4llvm10adl_detail8end_implIRNS_8ArrayRefIN12_GLOBAL__N_17GPUInfoEEEEEDTcl3endclsr3stdE7forwardIT_Efp_EEEOS7_(ptr noundef nonnull align 8 dereferenceable(16) %0) #0 {
  %2 = alloca ptr, align 8
  store ptr %0, ptr %2, align 8
  %3 = load ptr, ptr %2, align 8
  %4 = call noundef ptr @_ZSt3endIN4llvm8ArrayRefIN12_GLOBAL__N_17GPUInfoEEEEDTcldtfp_3endEERT_(ptr noundef nonnull align 8 dereferenceable(16) %3)
  ret ptr %4
}

; Function Attrs: mustprogress nounwind uwtable
define internal noundef ptr @_ZN4llvm10adl_detail10begin_implIRNS_8ArrayRefIN12_GLOBAL__N_17GPUInfoEEEEEDTcl5beginclsr3stdE7forwardIT_Efp_EEEOS7_(ptr noundef nonnull align 8 dereferenceable(16) %0) #0 {
  %2 = alloca ptr, align 8
  store ptr %0, ptr %2, align 8
  %3 = load ptr, ptr %2, align 8
  %4 = call noundef ptr @_ZSt5beginIN4llvm8ArrayRefIN12_GLOBAL__N_17GPUInfoEEEEDTcldtfp_5beginEERT_(ptr noundef nonnull align 8 dereferenceable(16) %3)
  ret ptr %4
}

; Function Attrs: mustprogress nounwind uwtable
define internal noundef ptr @"_ZSt11lower_boundIPKN12_GLOBAL__N_17GPUInfoES1_ZNS0_12getArchEntryEN4llvm6AMDGPU7GPUKindENS4_8ArrayRefIS1_EEE3$_0ET_SA_SA_RKT0_T1_"(ptr noundef %0, ptr noundef %1, ptr noundef nonnull align 8 dereferenceable(40) %2) #0 {
  %4 = alloca ptr, align 8
  %5 = alloca ptr, align 8
  %6 = alloca ptr, align 8
  store ptr %0, ptr %4, align 8
  store ptr %1, ptr %5, align 8
  store ptr %2, ptr %6, align 8
  %7 = load ptr, ptr %4, align 8
  %8 = load ptr, ptr %5, align 8
  %9 = load ptr, ptr %6, align 8
  call void @"_ZN9__gnu_cxx5__ops15__iter_comp_valIZN12_GLOBAL__N_112getArchEntryEN4llvm6AMDGPU7GPUKindENS3_8ArrayRefINS2_7GPUInfoEEEE3$_0EENS0_14_Iter_comp_valIT_EESB_"()
  %10 = call noundef ptr @"_ZSt13__lower_boundIPKN12_GLOBAL__N_17GPUInfoES1_N9__gnu_cxx5__ops14_Iter_comp_valIZNS0_12getArchEntryEN4llvm6AMDGPU7GPUKindENS7_8ArrayRefIS1_EEE3$_0EEET_SE_SE_RKT0_T1_"(ptr noundef %7, ptr noundef %8, ptr noundef nonnull align 8 dereferenceable(40) %9)
  ret ptr %10
}

; Function Attrs: mustprogress nounwind uwtable
define internal noundef ptr @_ZN4llvm7adl_endIRNS_8ArrayRefIN12_GLOBAL__N_17GPUInfoEEEEEDTclsr10adl_detailE8end_implclsr3stdE7forwardIT_Efp_EEEOS6_(ptr noundef nonnull align 8 dereferenceable(16) %0) #0 {
  %2 = alloca ptr, align 8
  store ptr %0, ptr %2, align 8
  %3 = load ptr, ptr %2, align 8
  %4 = call noundef ptr @_ZN4llvm10adl_detail8end_implIRNS_8ArrayRefIN12_GLOBAL__N_17GPUInfoEEEEEDTcl3endclsr3stdE7forwardIT_Efp_EEEOS7_(ptr noundef nonnull align 8 dereferenceable(16) %3)
  ret ptr %4
}

; Function Attrs: mustprogress nounwind uwtable
define internal noundef ptr @_ZN4llvm9adl_beginIRNS_8ArrayRefIN12_GLOBAL__N_17GPUInfoEEEEEDTclsr10adl_detailE10begin_implclsr3stdE7forwardIT_Efp_EEEOS6_(ptr noundef nonnull align 8 dereferenceable(16) %0) #0 {
  %2 = alloca ptr, align 8
  store ptr %0, ptr %2, align 8
  %3 = load ptr, ptr %2, align 8
  %4 = call noundef ptr @_ZN4llvm10adl_detail10begin_implIRNS_8ArrayRefIN12_GLOBAL__N_17GPUInfoEEEEEDTcl5beginclsr3stdE7forwardIT_Efp_EEEOS7_(ptr noundef nonnull align 8 dereferenceable(16) %3)
  ret ptr %4
}

; Function Attrs: mustprogress nounwind uwtable
define linkonce_odr hidden void @_ZN4llvm9StringRefC2EPKcm(ptr noundef nonnull align 8 dereferenceable(16) %0, ptr noundef %1, i64 noundef %2) unnamed_addr #0 comdat align 2 {
  %4 = alloca ptr, align 8
  %5 = alloca ptr, align 8
  %6 = alloca i64, align 8
  store ptr %0, ptr %4, align 8
  store ptr %1, ptr %5, align 8
  store i64 %2, ptr %6, align 8
  %7 = load ptr, ptr %4, align 8
  %8 = getelementptr inbounds nuw %"class.llvm::StringRef", ptr %7, i32 0, i32 0
  %9 = load ptr, ptr %5, align 8
  store ptr %9, ptr %8, align 8
  %10 = getelementptr inbounds nuw %"class.llvm::StringRef", ptr %7, i32 0, i32 1
  %11 = load i64, ptr %6, align 8
  store i64 %11, ptr %10, align 8
  ret void
}

; Function Attrs: mustprogress nounwind uwtable
define internal noundef ptr @_ZNK4llvm8ArrayRefIN12_GLOBAL__N_17GPUInfoEE3endEv(ptr noundef nonnull align 8 dereferenceable(16) %0) #0 align 2 {
  %2 = alloca ptr, align 8
  store ptr %0, ptr %2, align 8
  %3 = load ptr, ptr %2, align 8
  %4 = getelementptr inbounds nuw %"class.llvm::ArrayRef", ptr %3, i32 0, i32 0
  %5 = load ptr, ptr %4, align 8
  %6 = getelementptr inbounds nuw %"class.llvm::ArrayRef", ptr %3, i32 0, i32 1
  %7 = load i64, ptr %6, align 8
  %8 = getelementptr inbounds %"struct.(anonymous namespace)::GPUInfo", ptr %5, i64 %7
  ret ptr %8
}

; Function Attrs: mustprogress nounwind uwtable
define internal noundef ptr @"_ZN4llvm11lower_boundIRNS_8ArrayRefIN12_GLOBAL__N_17GPUInfoEEERS3_ZNS2_12getArchEntryENS_6AMDGPU7GPUKindES4_E3$_0EEDaOT_OT0_T1_"(ptr noundef nonnull align 8 dereferenceable(16) %0, ptr noundef nonnull align 8 dereferenceable(40) %1) #0 {
  %3 = alloca ptr, align 8
  %4 = alloca ptr, align 8
  store ptr %0, ptr %3, align 8
  store ptr %1, ptr %4, align 8
  %5 = load ptr, ptr %3, align 8
  %6 = call noundef ptr @_ZN4llvm9adl_beginIRNS_8ArrayRefIN12_GLOBAL__N_17GPUInfoEEEEEDTclsr10adl_detailE10begin_implclsr3stdE7forwardIT_Efp_EEEOS6_(ptr noundef nonnull align 8 dereferenceable(16) %5)
  %7 = load ptr, ptr %3, align 8
  %8 = call noundef ptr @_ZN4llvm7adl_endIRNS_8ArrayRefIN12_GLOBAL__N_17GPUInfoEEEEEDTclsr10adl_detailE8end_implclsr3stdE7forwardIT_Efp_EEEOS6_(ptr noundef nonnull align 8 dereferenceable(16) %7)
  %9 = load ptr, ptr %4, align 8
  %10 = call noundef ptr @"_ZSt11lower_boundIPKN12_GLOBAL__N_17GPUInfoES1_ZNS0_12getArchEntryEN4llvm6AMDGPU7GPUKindENS4_8ArrayRefIS1_EEE3$_0ET_SA_SA_RKT0_T1_"(ptr noundef %6, ptr noundef %8, ptr noundef nonnull align 8 dereferenceable(40) %9)
  ret ptr %10
}

; Function Attrs: mustprogress nounwind uwtable
define linkonce_odr hidden void @_ZN4llvm13StringLiteralC2ILm1EEEUa9enable_ifIXeqclL_Z16__builtin_strlenEfL0p_EmiLm1ELi1EEERAT__Kc(ptr noundef nonnull align 8 dereferenceable(16) %0, ptr noundef nonnull align 1 dereferenceable(1) %1) unnamed_addr #0 comdat align 2 {
  %3 = alloca ptr, align 8
  %4 = alloca ptr, align 8
  store ptr %0, ptr %3, align 8
  store ptr %1, ptr %4, align 8
  %5 = load ptr, ptr %3, align 8
  %6 = load ptr, ptr %4, align 8
  %7 = getelementptr inbounds [1 x i8], ptr %6, i64 0, i64 0
  call void @_ZN4llvm9StringRefC2EPKcm(ptr noundef nonnull align 8 dereferenceable(16) %5, ptr noundef %7, i64 noundef 0)
  ret void
}

; Function Attrs: mustprogress nounwind uwtable
define internal noundef ptr @_ZN12_GLOBAL__N_112getArchEntryEN4llvm6AMDGPU7GPUKindENS0_8ArrayRefINS_7GPUInfoEEE(i32 noundef %0, ptr %1, i64 %2) #0 {
  %4 = alloca ptr, align 8
  %5 = alloca %"class.llvm::ArrayRef", align 8
  %6 = alloca i32, align 4
  %7 = alloca %"struct.(anonymous namespace)::GPUInfo", align 8
  %8 = alloca ptr, align 8
  %9 = getelementptr inbounds nuw { ptr, i64 }, ptr %5, i32 0, i32 0
  store ptr %1, ptr %9, align 8
  %10 = getelementptr inbounds nuw { ptr, i64 }, ptr %5, i32 0, i32 1
  store i64 %2, ptr %10, align 8
  store i32 %0, ptr %6, align 4
  %11 = getelementptr inbounds nuw %"struct.(anonymous namespace)::GPUInfo", ptr %7, i32 0, i32 0
  call void @_ZN4llvm13StringLiteralC2ILm1EEEUa9enable_ifIXeqclL_Z16__builtin_strlenEfL0p_EmiLm1ELi1EEERAT__Kc(ptr noundef nonnull align 8 dereferenceable(16) %11, ptr noundef nonnull align 1 dereferenceable(1) @.str.4)
  %12 = getelementptr inbounds nuw %"struct.(anonymous namespace)::GPUInfo", ptr %7, i32 0, i32 1
  call void @_ZN4llvm13StringLiteralC2ILm1EEEUa9enable_ifIXeqclL_Z16__builtin_strlenEfL0p_EmiLm1ELi1EEERAT__Kc(ptr noundef nonnull align 8 dereferenceable(16) %12, ptr noundef nonnull align 1 dereferenceable(1) @.str.4)
  %13 = getelementptr inbounds nuw %"struct.(anonymous namespace)::GPUInfo", ptr %7, i32 0, i32 2
  %14 = load i32, ptr %6, align 4
  store i32 %14, ptr %13, align 8
  %15 = getelementptr inbounds nuw %"struct.(anonymous namespace)::GPUInfo", ptr %7, i32 0, i32 3
  store i32 0, ptr %15, align 4
  %16 = call noundef ptr @"_ZN4llvm11lower_boundIRNS_8ArrayRefIN12_GLOBAL__N_17GPUInfoEEERS3_ZNS2_12getArchEntryENS_6AMDGPU7GPUKindES4_E3$_0EEDaOT_OT0_T1_"(ptr noundef nonnull align 8 dereferenceable(16) %5, ptr noundef nonnull align 8 dereferenceable(40) %7)
  store ptr %16, ptr %8, align 8
  %17 = load ptr, ptr %8, align 8
  %18 = call noundef ptr @_ZNK4llvm8ArrayRefIN12_GLOBAL__N_17GPUInfoEE3endEv(ptr noundef nonnull align 8 dereferenceable(16) %5)
  %19 = icmp eq ptr %17, %18
  br i1 %19, label %27, label %20

20:                                               ; preds = %3
  %21 = load ptr, ptr %8, align 8
  %22 = getelementptr inbounds nuw %"struct.(anonymous namespace)::GPUInfo", ptr %21, i32 0, i32 2
  %23 = load i32, ptr %22, align 8
  %24 = getelementptr inbounds nuw %"struct.(anonymous namespace)::GPUInfo", ptr %7, i32 0, i32 2
  %25 = load i32, ptr %24, align 8
  %26 = icmp ne i32 %23, %25
  br i1 %26, label %27, label %28

27:                                               ; preds = %20, %3
  store ptr null, ptr %4, align 8
  br label %30

28:                                               ; preds = %20
  %29 = load ptr, ptr %8, align 8
  store ptr %29, ptr %4, align 8
  br label %30

30:                                               ; preds = %28, %27
  %31 = load ptr, ptr %4, align 8
  ret ptr %31
}

; Function Attrs: mustprogress nounwind uwtable
define internal void @_ZN4llvm8ArrayRefIN12_GLOBAL__N_17GPUInfoEEC2ILm68EEERAT__KS2_(ptr noundef nonnull align 8 dereferenceable(16) %0, ptr noundef nonnull align 8 dereferenceable(2720) %1) unnamed_addr #0 align 2 {
  %3 = alloca ptr, align 8
  %4 = alloca ptr, align 8
  store ptr %0, ptr %3, align 8
  store ptr %1, ptr %4, align 8
  %5 = load ptr, ptr %3, align 8
  %6 = getelementptr inbounds nuw %"class.llvm::ArrayRef", ptr %5, i32 0, i32 0
  %7 = load ptr, ptr %4, align 8
  %8 = getelementptr inbounds [68 x %"struct.(anonymous namespace)::GPUInfo"], ptr %7, i64 0, i64 0
  store ptr %8, ptr %6, align 8
  %9 = getelementptr inbounds nuw %"class.llvm::ArrayRef", ptr %5, i32 0, i32 1
  store i64 68, ptr %9, align 8
  ret void
}

; Function Attrs: mustprogress nounwind uwtable
define dso_local noundef i32 @_ZN4llvm6AMDGPU17getArchAttrAMDGCNENS0_7GPUKindE(i32 noundef %0) #0 {
  %2 = alloca i32, align 4
  %3 = alloca i32, align 4
  %4 = alloca ptr, align 8
  %5 = alloca %"class.llvm::ArrayRef", align 8
  store i32 %0, ptr %3, align 4
  %6 = load i32, ptr %3, align 4
  call void @_ZN4llvm8ArrayRefIN12_GLOBAL__N_17GPUInfoEEC2ILm68EEERAT__KS2_(ptr noundef nonnull align 8 dereferenceable(16) %5, ptr noundef nonnull align 8 dereferenceable(2720) @_ZN12_GLOBAL__N_110AMDGCNGPUsE)
  %7 = getelementptr inbounds nuw { ptr, i64 }, ptr %5, i32 0, i32 0
  %8 = load ptr, ptr %7, align 8
  %9 = getelementptr inbounds nuw { ptr, i64 }, ptr %5, i32 0, i32 1
  %10 = load i64, ptr %9, align 8
  %11 = call noundef ptr @_ZN12_GLOBAL__N_112getArchEntryEN4llvm6AMDGPU7GPUKindENS0_8ArrayRefINS_7GPUInfoEEE(i32 noundef %6, ptr %8, i64 %10)
  store ptr %11, ptr %4, align 8
  %12 = load ptr, ptr %4, align 8
  %13 = icmp ne ptr %12, null
  br i1 %13, label %14, label %18

14:                                               ; preds = %1
  %15 = load ptr, ptr %4, align 8
  %16 = getelementptr inbounds nuw %"struct.(anonymous namespace)::GPUInfo", ptr %15, i32 0, i32 3
  %17 = load i32, ptr %16, align 4
  store i32 %17, ptr %2, align 4
  br label %19

18:                                               ; preds = %1
  store i32 0, ptr %2, align 4
  br label %19

19:                                               ; preds = %18, %14
  %20 = load i32, ptr %2, align 4
  ret i32 %20
}