; Function Attrs: mustprogress nofree norecurse nosync nounwind willreturn memory(none) uwtable
define dso_local noundef i32 @_ZN4llvm6AMDGPU17getArchAttrAMDGCNENS0_7GPUKindE(i32 noundef %0) local_unnamed_addr #0 {
  br label %.lr.ph.i.i.i.i

.lr.ph.i.i.i.i:                                   ; preds = %1, %.lr.ph.i.i.i.i
  %.04.i.i.i.i = phi ptr [ %.1.i.i.i.i, %.lr.ph.i.i.i.i ], [ @_ZN12_GLOBAL__N_110AMDGCNGPUsE, %1 ]
  %.0113.i.i.i.i = phi i64 [ %.112.i.i.i.i, %.lr.ph.i.i.i.i ], [ 68, %1 ]
  %2 = lshr i64 %.0113.i.i.i.i, 1
  %3 = getelementptr inbounds %"struct.(anonymous namespace)::GPUInfo", ptr %.04.i.i.i.i, i64 %2
  %4 = getelementptr i8, ptr %3, i64 32
  %.val.i.i.i.i = load i32, ptr %4, align 8
  %5 = icmp ult i32 %.val.i.i.i.i, %0
  %6 = getelementptr inbounds i8, ptr %3, i64 40
  %7 = xor i64 %2, -1
  %8 = add nsw i64 %.0113.i.i.i.i, %7
  %.112.i.i.i.i = select i1 %5, i64 %8, i64 %2
  %.1.i.i.i.i = select i1 %5, ptr %6, ptr %.04.i.i.i.i
  %9 = icmp sgt i64 %.112.i.i.i.i, 0
  br i1 %9, label %.lr.ph.i.i.i.i, label %"_ZN4llvm11lower_boundIRNS_8ArrayRefIN12_GLOBAL__N_17GPUInfoEEERS3_ZNS2_12getArchEntryENS_6AMDGPU7GPUKindES4_E3$_0EEDaOT_OT0_T1_.exit.i", !llvm.loop !4

"_ZN4llvm11lower_boundIRNS_8ArrayRefIN12_GLOBAL__N_17GPUInfoEEERS3_ZNS2_12getArchEntryENS_6AMDGPU7GPUKindES4_E3$_0EEDaOT_OT0_T1_.exit.i": ; preds = %.lr.ph.i.i.i.i
  %10 = icmp eq ptr %.1.i.i.i.i, getelementptr inbounds (i8, ptr @_ZN12_GLOBAL__N_110AMDGCNGPUsE, i64 2720)
  br i1 %10, label %_ZN12_GLOBAL__N_112getArchEntryEN4llvm6AMDGPU7GPUKindENS0_8ArrayRefINS_7GPUInfoEEE.exit.thread, label %11

11:                                               ; preds = %"_ZN4llvm11lower_boundIRNS_8ArrayRefIN12_GLOBAL__N_17GPUInfoEEERS3_ZNS2_12getArchEntryENS_6AMDGPU7GPUKindES4_E3$_0EEDaOT_OT0_T1_.exit.i"
  %12 = getelementptr inbounds nuw i8, ptr %.1.i.i.i.i, i64 32
  %13 = load i32, ptr %12, align 8
  %.not.i = icmp ne i32 %13, %0
  %.not = icmp eq ptr %.1.i.i.i.i, null
  %or.cond = select i1 %.not.i, i1 true, i1 %.not
  br i1 %or.cond, label %_ZN12_GLOBAL__N_112getArchEntryEN4llvm6AMDGPU7GPUKindENS0_8ArrayRefINS_7GPUInfoEEE.exit.thread, label %14

14:                                               ; preds = %11
  %15 = getelementptr inbounds nuw i8, ptr %.1.i.i.i.i, i64 36
  %16 = load i32, ptr %15, align 4
  br label %_ZN12_GLOBAL__N_112getArchEntryEN4llvm6AMDGPU7GPUKindENS0_8ArrayRefINS_7GPUInfoEEE.exit.thread

_ZN12_GLOBAL__N_112getArchEntryEN4llvm6AMDGPU7GPUKindENS0_8ArrayRefINS_7GPUInfoEEE.exit.thread: ; preds = %11, %"_ZN4llvm11lower_boundIRNS_8ArrayRefIN12_GLOBAL__N_17GPUInfoEEERS3_ZNS2_12getArchEntryENS_6AMDGPU7GPUKindES4_E3$_0EEDaOT_OT0_T1_.exit.i", %14
  %.0 = phi i32 [ %16, %14 ], [ 0, %"_ZN4llvm11lower_boundIRNS_8ArrayRefIN12_GLOBAL__N_17GPUInfoEEERS3_ZNS2_12getArchEntryENS_6AMDGPU7GPUKindES4_E3$_0EEDaOT_OT0_T1_.exit.i" ], [ 0, %11 ]
  ret i32 %.0
}